target datalayout = "e-m:e-p270:32:32-p271:32:32-p272:64:64-i64:64-i128:128-f80:128-n8:16:32:64-S128"
target triple = "x86_64-pc-linux-gnu"

%struct.Abc_Frame_t_ = type { ptr, ptr, ptr, ptr, ptr, ptr, ptr, ptr, ptr, ptr, i32, i32, i32, i32, i32, ptr, float, float, i32, i32, ptr, ptr, ptr, double, double, ptr, ptr, ptr, ptr, ptr, ptr, ptr, ptr, ptr, ptr, ptr, ptr, float, ptr, i32, ptr, ptr, ptr, ptr, ptr, i32, i32, i32, i32, i32, i32, ptr, ptr, ptr, ptr, ptr, ptr, i32, i32, ptr, ptr, ptr, ptr, ptr, ptr, ptr, ptr, ptr, ptr, ptr, ptr, ptr, ptr, ptr, ptr, ptr, ptr, ptr, ptr, ptr, ptr, ptr, ptr, ptr, ptr, ptr, ptr, ptr, ptr }

@globalUtilOptind = external global i32, align 4
@.str.41 = private unnamed_addr constant [4 x i8] c"yes\00", align 1
@.str.42 = private unnamed_addr constant [3 x i8] c"no\00", align 1
@.str.45 = private unnamed_addr constant [62 x i8] c"\09-v     : toggle printing verbose information [default = %s]\0A\00", align 1
@.str.46 = private unnamed_addr constant [35 x i8] c"\09-h     : print the command usage\0A\00", align 1
@.str.88 = private unnamed_addr constant [60 x i8] c"Command line switch \22-I\22 should be followed by an integer.\0A\00", align 1
@.str.96 = private unnamed_addr constant [61 x i8] c"\09-I num : maximum number of CEGAR iterations [default = %d]\0A\00", align 1
@.str.112 = private unnamed_addr constant [61 x i8] c"\09-w     : toggle printing verbose PDR output [default = %s]\0A\00", align 1
@.str.117 = private unnamed_addr constant [6 x i8] c"Idwvh\00", align 1
@.str.118 = private unnamed_addr constant [50 x i8] c"Abc_CommandMemAbs(): There is no current design.\0A\00", align 1
@.str.119 = private unnamed_addr constant [34 x i8] c"usage: %%memabs [-I num] [-dwvh]\0A\00", align 1
@.str.120 = private unnamed_addr constant [54 x i8] c"\09         memory abstraction for word-level networks\0A\00", align 1
@.str.121 = private unnamed_addr constant [63 x i8] c"\09-d     : toggle dumping abstraction as an AIG [default = %s]\0A\00", align 1

; Function Attrs: inlinehint nounwind willreturn memory(read) uwtable
define available_externally i32 @atoi(ptr noundef nonnull %0) #8 {
  %2 = alloca ptr, align 8
  store ptr %0, ptr %2, align 8, !tbaa !14
  %3 = load ptr, ptr %2, align 8, !tbaa !14
  %4 = call i64 @strtol(ptr noundef %3, ptr noundef null, i32 noundef 10) #12
  %5 = trunc i64 %4 to i32
  ret i32 %5
}

; Function Attrs: inlinehint nounwind uwtable
define internal ptr @Wlc_AbcGetNtk(ptr noundef %0) #2 {
  %2 = alloca ptr, align 8
  store ptr %0, ptr %2, align 8, !tbaa !3
  %3 = load ptr, ptr %2, align 8, !tbaa !3
  %4 = getelementptr inbounds nuw %struct.Abc_Frame_t_, ptr %3, i32 0, i32 71
  %5 = load ptr, ptr %4, align 8, !tbaa !132
  ret ptr %5
}

; Function Attrs: nounwind uwtable
define internal i32 @Abc_CommandMemAbs(ptr noundef %0, i32 noundef %1, ptr noundef %2) #0 {
  %4 = alloca i32, align 4
  %5 = alloca ptr, align 8
  %6 = alloca i32, align 4
  %7 = alloca ptr, align 8
  %8 = alloca ptr, align 8
  %9 = alloca i32, align 4
  %10 = alloca i32, align 4
  %11 = alloca i32, align 4
  %12 = alloca i32, align 4
  %13 = alloca i32, align 4
  %14 = alloca i32, align 4
  store ptr %0, ptr %5, align 8, !tbaa !3
  store i32 %1, ptr %6, align 4, !tbaa !8
  store ptr %2, ptr %7, align 8, !tbaa !10
  call void @llvm.lifetime.start.p0(i64 8, ptr %8) #12
  %15 = load ptr, ptr %5, align 8, !tbaa !3
  %16 = call ptr @Wlc_AbcGetNtk(ptr noundef %15)
  store ptr %16, ptr %8, align 8, !tbaa !12
  call void @llvm.lifetime.start.p0(i64 4, ptr %9) #12
  call void @llvm.lifetime.start.p0(i64 4, ptr %10) #12
  store i32 1000, ptr %10, align 4, !tbaa !8
  call void @llvm.lifetime.start.p0(i64 4, ptr %11) #12
  store i32 0, ptr %11, align 4, !tbaa !8
  call void @llvm.lifetime.start.p0(i64 4, ptr %12) #12
  store i32 0, ptr %12, align 4, !tbaa !8
  call void @llvm.lifetime.start.p0(i64 4, ptr %13) #12
  store i32 0, ptr %13, align 4, !tbaa !8
  call void (...) @Extra_UtilGetoptReset()
  br label %17

17:                                               ; preds = %53, %3
  %18 = load i32, ptr %6, align 4, !tbaa !8
  %19 = load ptr, ptr %7, align 8, !tbaa !10
  %20 = call i32 @Extra_UtilGetopt(i32 noundef %18, ptr noundef %19, ptr noundef @.str.117)
  store i32 %20, ptr %9, align 4, !tbaa !8
  %21 = icmp ne i32 %20, -1
  br i1 %21, label %22, label %54

22:                                               ; preds = %17
  %23 = load i32, ptr %9, align 4, !tbaa !8
  switch i32 %23, label %52 [
    i32 73, label %24
    i32 100, label %42
    i32 119, label %45
    i32 118, label %48
    i32 104, label %51
  ]

24:                                               ; preds = %22
  %25 = load i32, ptr @globalUtilOptind, align 4, !tbaa !8
  %26 = load i32, ptr %6, align 4, !tbaa !8
  %27 = icmp sge i32 %25, %26
  br i1 %27, label %28, label %29

28:                                               ; preds = %24
  call void (i32, ptr, ...) @Abc_Print(i32 noundef -1, ptr noundef @.str.88)
  br label %65

29:                                               ; preds = %24
  %30 = load ptr, ptr %7, align 8, !tbaa !10
  %31 = load i32, ptr @globalUtilOptind, align 4, !tbaa !8
  %32 = sext i32 %31 to i64
  %33 = getelementptr inbounds ptr, ptr %30, i64 %32
  %34 = load ptr, ptr %33, align 8, !tbaa !14
  %35 = call i32 @atoi(ptr noundef %34) #13
  store i32 %35, ptr %10, align 4, !tbaa !8
  %36 = load i32, ptr @globalUtilOptind, align 4, !tbaa !8
  %37 = add nsw i32 %36, 1
  store i32 %37, ptr @globalUtilOptind, align 4, !tbaa !8
  %38 = load i32, ptr %10, align 4, !tbaa !8
  %39 = icmp sle i32 %38, 0
  br i1 %39, label %40, label %41

40:                                               ; preds = %29
  br label %65

41:                                               ; preds = %29
  br label %53

42:                                               ; preds = %22
  %43 = load i32, ptr %11, align 4, !tbaa !8
  %44 = xor i32 %43, 1
  store i32 %44, ptr %11, align 4, !tbaa !8
  br label %53

45:                                               ; preds = %22
  %46 = load i32, ptr %12, align 4, !tbaa !8
  %47 = xor i32 %46, 1
  store i32 %47, ptr %12, align 4, !tbaa !8
  br label %53

48:                                               ; preds = %22
  %49 = load i32, ptr %13, align 4, !tbaa !8
  %50 = xor i32 %49, 1
  store i32 %50, ptr %13, align 4, !tbaa !8
  br label %53

51:                                               ; preds = %22
  br label %65

52:                                               ; preds = %22
  br label %65

53:                                               ; preds = %48, %45, %42, %41
  br label %17, !llvm.loop !71

54:                                               ; preds = %17
  %55 = load ptr, ptr %8, align 8, !tbaa !12
  %56 = icmp eq ptr %55, null
  br i1 %56, label %57, label %58

57:                                               ; preds = %54
  call void (i32, ptr, ...) @Abc_Print(i32 noundef 1, ptr noundef @.str.118)
  store i32 0, ptr %4, align 4
  store i32 1, ptr %14, align 4
  br label %76

58:                                               ; preds = %54
  %59 = load ptr, ptr %8, align 8, !tbaa !12
  %60 = load i32, ptr %10, align 4, !tbaa !8
  %61 = load i32, ptr %11, align 4, !tbaa !8
  %62 = load i32, ptr %12, align 4, !tbaa !8
  %63 = load i32, ptr %13, align 4, !tbaa !8
  %64 = call i32 @Wlc_NtkMemAbstract(ptr noundef %59, i32 noundef %60, i32 noundef %61, i32 noundef %62, i32 noundef %63)
  store i32 0, ptr %4, align 4
  store i32 1, ptr %14, align 4
  br label %76

65:                                               ; preds = %52, %51, %40, %28
  call void (i32, ptr, ...) @Abc_Print(i32 noundef -2, ptr noundef @.str.119)
  call void (i32, ptr, ...) @Abc_Print(i32 noundef -2, ptr noundef @.str.120)
  %66 = load i32, ptr %10, align 4, !tbaa !8
  call void (i32, ptr, ...) @Abc_Print(i32 noundef -2, ptr noundef @.str.96, i32 noundef %66)
  %67 = load i32, ptr %11, align 4, !tbaa !8
  %68 = icmp ne i32 %67, 0
  %69 = select i1 %68, ptr @.str.41, ptr @.str.42
  call void (i32, ptr, ...) @Abc_Print(i32 noundef -2, ptr noundef @.str.121, ptr noundef %69)
  %70 = load i32, ptr %12, align 4, !tbaa !8
  %71 = icmp ne i32 %70, 0
  %72 = select i1 %71, ptr @.str.41, ptr @.str.42
  call void (i32, ptr, ...) @Abc_Print(i32 noundef -2, ptr noundef @.str.112, ptr noundef %72)
  %73 = load i32, ptr %13, align 4, !tbaa !8
  %74 = icmp ne i32 %73, 0
  %75 = select i1 %74, ptr @.str.41, ptr @.str.42
  call void (i32, ptr, ...) @Abc_Print(i32 noundef -2, ptr noundef @.str.45, ptr noundef %75)
  call void (i32, ptr, ...) @Abc_Print(i32 noundef -2, ptr noundef @.str.46)
  store i32 1, ptr %4, align 4
  store i32 1, ptr %14, align 4
  br label %76

76:                                               ; preds = %65, %58, %57
  call void @llvm.lifetime.end.p0(i64 4, ptr %13) #12
  call void @llvm.lifetime.end.p0(i64 4, ptr %12) #12
  call void @llvm.lifetime.end.p0(i64 4, ptr %11) #12
  call void @llvm.lifetime.end.p0(i64 4, ptr %10) #12
  call void @llvm.lifetime.end.p0(i64 4, ptr %9) #12
  call void @llvm.lifetime.end.p0(i64 8, ptr %8) #12
  %77 = load i32, ptr %4, align 4
  ret i32 %77
}