; Function Attrs: nounwind uwtable
define internal range(i32 0, 2) i32 @Abc_CommandMemAbs(ptr noundef readonly captures(none) %0, i32 noundef %1, ptr noundef %2) #0 {
  %4 = getelementptr i8, ptr %0, i64 504
  %.val = load ptr, ptr %4, align 8, !tbaa !27
  tail call void (...) @Extra_UtilGetoptReset() #17
  br label %.outer

.outer:                                           ; preds = %10, %3
  %.024.ph = phi i32 [ %15, %10 ], [ 1000, %3 ]
  %.022.ph = phi i32 [ %.022.ph81, %10 ], [ 0, %3 ]
  %.020.ph = phi i32 [ %.020.ph85, %10 ], [ 0, %3 ]
  %.0.ph = phi i32 [ %.0, %10 ], [ 0, %3 ]
  br label %.outer80

.outer80:                                         ; preds = %.outer, %18
  %.022.ph81 = phi i32 [ %.022.ph, %.outer ], [ %19, %18 ]
  %.020.ph82 = phi i32 [ %.020.ph, %.outer ], [ %.020.ph85, %18 ]
  %.0.ph83 = phi i32 [ %.0.ph, %.outer ], [ %.0, %18 ]
  br label %.outer84

.outer84:                                         ; preds = %.outer80, %20
  %.020.ph85 = phi i32 [ %.020.ph82, %.outer80 ], [ %21, %20 ]
  %.0.ph86 = phi i32 [ %.0.ph83, %.outer80 ], [ %.0, %20 ]
  br label %5

5:                                                ; preds = %.outer84, %22
  %.0 = phi i32 [ %23, %22 ], [ %.0.ph86, %.outer84 ]
  %6 = tail call i32 @Extra_UtilGetopt(i32 noundef %1, ptr noundef %2, ptr noundef nonnull @.str.117) #17
  switch i32 %6, label %.loopexit [
    i32 -1, label %24
    i32 73, label %7
    i32 100, label %18
    i32 119, label %20
    i32 118, label %22
  ]

7:                                                ; preds = %5
  %8 = load i32, ptr @globalUtilOptind, align 4, !tbaa !5
  %.not32 = icmp slt i32 %8, %1
  br i1 %.not32, label %10, label %9

9:                                                ; preds = %7
  tail call void (i32, ptr, ...) @Abc_Print(i32 noundef -1, ptr noundef nonnull @.str.88)
  br label %.loopexit

10:                                               ; preds = %7
  %11 = sext i32 %8 to i64
  %12 = getelementptr inbounds ptr, ptr %2, i64 %11
  %13 = load ptr, ptr %12, align 8, !tbaa !9
  %14 = tail call i64 @strtol(ptr noundef nonnull captures(none) %13, ptr noundef null, i32 noundef 10) #17
  %15 = trunc i64 %14 to i32
  %16 = add nsw i32 %8, 1
  store i32 %16, ptr @globalUtilOptind, align 4, !tbaa !5
  %17 = icmp slt i32 %15, 1
  br i1 %17, label %.loopexit, label %.outer, !llvm.loop !64

18:                                               ; preds = %5
  %19 = xor i32 %.022.ph81, 1
  br label %.outer80, !llvm.loop !64

20:                                               ; preds = %5
  %21 = xor i32 %.020.ph85, 1
  br label %.outer84, !llvm.loop !64

22:                                               ; preds = %5
  %23 = xor i32 %.0, 1
  br label %5, !llvm.loop !64

24:                                               ; preds = %5
  %25 = icmp eq ptr %.val, null
  br i1 %25, label %26, label %27

26:                                               ; preds = %24
  tail call void (i32, ptr, ...) @Abc_Print(i32 noundef 1, ptr noundef nonnull @.str.118)
  br label %32

27:                                               ; preds = %24
  %28 = tail call i32 @Wlc_NtkMemAbstract(ptr noundef nonnull %.val, i32 noundef %.024.ph, i32 noundef %.022.ph81, i32 noundef %.020.ph85, i32 noundef %.0) #17
  br label %32

.loopexit:                                        ; preds = %5, %10, %9
  %.125 = phi i32 [ %.024.ph, %9 ], [ %.024.ph, %5 ], [ %15, %10 ]
  tail call void (i32, ptr, ...) @Abc_Print(i32 noundef -2, ptr noundef nonnull @.str.119)
  tail call void (i32, ptr, ...) @Abc_Print(i32 noundef -2, ptr noundef nonnull @.str.120)
  tail call void (i32, ptr, ...) @Abc_Print(i32 noundef -2, ptr noundef nonnull @.str.96, i32 noundef %.125)
  %.not33 = icmp eq i32 %.022.ph81, 0
  %29 = select i1 %.not33, ptr @.str.42, ptr @.str.41
  tail call void (i32, ptr, ...) @Abc_Print(i32 noundef -2, ptr noundef nonnull @.str.121, ptr noundef nonnull %29)
  %.not34 = icmp eq i32 %.020.ph85, 0
  %30 = select i1 %.not34, ptr @.str.42, ptr @.str.41
  tail call void (i32, ptr, ...) @Abc_Print(i32 noundef -2, ptr noundef nonnull @.str.112, ptr noundef nonnull %30)
  %.not35 = icmp eq i32 %.0, 0
  %31 = select i1 %.not35, ptr @.str.42, ptr @.str.41
  tail call void (i32, ptr, ...) @Abc_Print(i32 noundef -2, ptr noundef nonnull @.str.45, ptr noundef nonnull %31)
  tail call void (i32, ptr, ...) @Abc_Print(i32 noundef -2, ptr noundef nonnull @.str.46)
  br label %32

32:                                               ; preds = %.loopexit, %27, %26
  %.026 = phi i32 [ 1, %.loopexit ], [ 0, %26 ], [ 0, %27 ]
  ret i32 %.026
}